target datalayout = "e-m:e-p270:32:32-p271:32:32-p272:64:64-i64:64-i128:128-f80:128-n8:16:32:64-S128"
target triple = "x86_64-pc-linux-gnu"

%struct._zval_struct = type { %union._zend_value, %union.anon, %union.anon.2 }
%union._zend_value = type { i64 }
%union.anon = type { i32 }
%union.anon.2 = type { i32 }
%struct._zend_execute_data = type { ptr, ptr, ptr, ptr, %struct._zval_struct, ptr, ptr, ptr, ptr }
%struct._zend_gc_status = type { i8, i8, i8, i32, i32, i32, i32, i32, i64, i64, i64, i64 }

@.str.4 = private unnamed_addr constant [8 x i8] c"running\00", align 1
@.str.5 = private unnamed_addr constant [10 x i8] c"protected\00", align 1
@.str.6 = private unnamed_addr constant [5 x i8] c"full\00", align 1
@.str.7 = private unnamed_addr constant [5 x i8] c"runs\00", align 1
@.str.8 = private unnamed_addr constant [10 x i8] c"collected\00", align 1
@.str.9 = private unnamed_addr constant [10 x i8] c"threshold\00", align 1
@.str.10 = private unnamed_addr constant [12 x i8] c"buffer_size\00", align 1
@.str.11 = private unnamed_addr constant [6 x i8] c"roots\00", align 1
@.str.12 = private unnamed_addr constant [17 x i8] c"application_time\00", align 1
@.str.13 = private unnamed_addr constant [15 x i8] c"collector_time\00", align 1
@.str.14 = private unnamed_addr constant [16 x i8] c"destructor_time\00", align 1
@.str.15 = private unnamed_addr constant [10 x i8] c"free_time\00", align 1

; Function Attrs: nounwind uwtable
define hidden void @zif_gc_status(ptr noundef %0, ptr noundef %1) #0 {
  %3 = alloca ptr, align 8
  %4 = alloca ptr, align 8
  %5 = alloca %struct._zend_gc_status, align 8
  %6 = alloca i32, align 4
  %7 = alloca ptr, align 8
  %8 = alloca ptr, align 8
  store ptr %0, ptr %3, align 8, !tbaa !66
  store ptr %1, ptr %4, align 8, !tbaa !67
  call void @llvm.lifetime.start.p0(i64 56, ptr %5) #14
  br label %9

9:                                                ; preds = %2
  %10 = load ptr, ptr %3, align 8, !tbaa !66
  %11 = getelementptr inbounds nuw %struct._zend_execute_data, ptr %10, i32 0, i32 4
  %12 = getelementptr inbounds nuw %struct._zval_struct, ptr %11, i32 0, i32 2
  %13 = load i32, ptr %12, align 4, !tbaa !31
  %14 = icmp ne i32 %13, 0
  %15 = xor i1 %14, true
  %16 = xor i1 %15, true
  %17 = zext i1 %16 to i32
  %18 = sext i32 %17 to i64
  %19 = call i64 @llvm.expect.i64(i64 %18, i64 0)
  %20 = icmp ne i64 %19, 0
  br i1 %20, label %21, label %22

21:                                               ; preds = %9
  call void @zend_wrong_parameters_none_error()
  store i32 1, ptr %6, align 4
  br label %87

22:                                               ; preds = %9
  br label %23

23:                                               ; preds = %22
  br label %24

24:                                               ; preds = %23
  call void @zend_gc_get_status(ptr noundef %5)
  br label %25

25:                                               ; preds = %24
  call void @llvm.lifetime.start.p0(i64 8, ptr %7) #14
  %26 = call ptr @_zend_new_array(i32 noundef 16)
  store ptr %26, ptr %7, align 8, !tbaa !83
  call void @llvm.lifetime.start.p0(i64 8, ptr %8) #14
  %27 = load ptr, ptr %4, align 8, !tbaa !67
  store ptr %27, ptr %8, align 8, !tbaa !67
  %28 = load ptr, ptr %7, align 8, !tbaa !83
  %29 = load ptr, ptr %8, align 8, !tbaa !67
  %30 = getelementptr inbounds nuw %struct._zval_struct, ptr %29, i32 0, i32 0
  store ptr %28, ptr %30, align 8, !tbaa !31
  %31 = load ptr, ptr %8, align 8, !tbaa !67
  %32 = getelementptr inbounds nuw %struct._zval_struct, ptr %31, i32 0, i32 1
  store i32 775, ptr %32, align 8, !tbaa !31
  call void @llvm.lifetime.end.p0(i64 8, ptr %8) #14
  call void @llvm.lifetime.end.p0(i64 8, ptr %7) #14
  br label %33

33:                                               ; preds = %25
  br label %34

34:                                               ; preds = %33
  %35 = load ptr, ptr %4, align 8, !tbaa !67
  %36 = getelementptr inbounds nuw %struct._zend_gc_status, ptr %5, i32 0, i32 0
  %37 = load i8, ptr %36, align 8, !tbaa !84, !range !71, !noundef !72
  %38 = trunc i8 %37 to i1
  call void @add_assoc_bool_ex(ptr noundef %35, ptr noundef @.str.4, i64 noundef 7, i1 noundef zeroext %38)
  %39 = load ptr, ptr %4, align 8, !tbaa !67
  %40 = getelementptr inbounds nuw %struct._zend_gc_status, ptr %5, i32 0, i32 1
  %41 = load i8, ptr %40, align 1, !tbaa !86, !range !71, !noundef !72
  %42 = trunc i8 %41 to i1
  call void @add_assoc_bool_ex(ptr noundef %39, ptr noundef @.str.5, i64 noundef 9, i1 noundef zeroext %42)
  %43 = load ptr, ptr %4, align 8, !tbaa !67
  %44 = getelementptr inbounds nuw %struct._zend_gc_status, ptr %5, i32 0, i32 2
  %45 = load i8, ptr %44, align 2, !tbaa !87, !range !71, !noundef !72
  %46 = trunc i8 %45 to i1
  call void @add_assoc_bool_ex(ptr noundef %43, ptr noundef @.str.6, i64 noundef 4, i1 noundef zeroext %46)
  %47 = load ptr, ptr %4, align 8, !tbaa !67
  %48 = getelementptr inbounds nuw %struct._zend_gc_status, ptr %5, i32 0, i32 3
  %49 = load i32, ptr %48, align 4, !tbaa !88
  %50 = zext i32 %49 to i64
  call void @add_assoc_long_ex(ptr noundef %47, ptr noundef @.str.7, i64 noundef 4, i64 noundef %50)
  %51 = load ptr, ptr %4, align 8, !tbaa !67
  %52 = getelementptr inbounds nuw %struct._zend_gc_status, ptr %5, i32 0, i32 4
  %53 = load i32, ptr %52, align 8, !tbaa !89
  %54 = zext i32 %53 to i64
  call void @add_assoc_long_ex(ptr noundef %51, ptr noundef @.str.8, i64 noundef 9, i64 noundef %54)
  %55 = load ptr, ptr %4, align 8, !tbaa !67
  %56 = getelementptr inbounds nuw %struct._zend_gc_status, ptr %5, i32 0, i32 5
  %57 = load i32, ptr %56, align 4, !tbaa !90
  %58 = zext i32 %57 to i64
  call void @add_assoc_long_ex(ptr noundef %55, ptr noundef @.str.9, i64 noundef 9, i64 noundef %58)
  %59 = load ptr, ptr %4, align 8, !tbaa !67
  %60 = getelementptr inbounds nuw %struct._zend_gc_status, ptr %5, i32 0, i32 6
  %61 = load i32, ptr %60, align 8, !tbaa !91
  %62 = zext i32 %61 to i64
  call void @add_assoc_long_ex(ptr noundef %59, ptr noundef @.str.10, i64 noundef 11, i64 noundef %62)
  %63 = load ptr, ptr %4, align 8, !tbaa !67
  %64 = getelementptr inbounds nuw %struct._zend_gc_status, ptr %5, i32 0, i32 7
  %65 = load i32, ptr %64, align 4, !tbaa !92
  %66 = zext i32 %65 to i64
  call void @add_assoc_long_ex(ptr noundef %63, ptr noundef @.str.11, i64 noundef 5, i64 noundef %66)
  %67 = load ptr, ptr %4, align 8, !tbaa !67
  %68 = getelementptr inbounds nuw %struct._zend_gc_status, ptr %5, i32 0, i32 8
  %69 = load i64, ptr %68, align 8, !tbaa !93
  %70 = uitofp i64 %69 to double
  %71 = fdiv double %70, 1.000000e+09
  call void @add_assoc_double_ex(ptr noundef %67, ptr noundef @.str.12, i64 noundef 16, double noundef %71)
  %72 = load ptr, ptr %4, align 8, !tbaa !67
  %73 = getelementptr inbounds nuw %struct._zend_gc_status, ptr %5, i32 0, i32 9
  %74 = load i64, ptr %73, align 8, !tbaa !94
  %75 = uitofp i64 %74 to double
  %76 = fdiv double %75, 1.000000e+09
  call void @add_assoc_double_ex(ptr noundef %72, ptr noundef @.str.13, i64 noundef 14, double noundef %76)
  %77 = load ptr, ptr %4, align 8, !tbaa !67
  %78 = getelementptr inbounds nuw %struct._zend_gc_status, ptr %5, i32 0, i32 10
  %79 = load i64, ptr %78, align 8, !tbaa !95
  %80 = uitofp i64 %79 to double
  %81 = fdiv double %80, 1.000000e+09
  call void @add_assoc_double_ex(ptr noundef %77, ptr noundef @.str.14, i64 noundef 15, double noundef %81)
  %82 = load ptr, ptr %4, align 8, !tbaa !67
  %83 = getelementptr inbounds nuw %struct._zend_gc_status, ptr %5, i32 0, i32 11
  %84 = load i64, ptr %83, align 8, !tbaa !96
  %85 = uitofp i64 %84 to double
  %86 = fdiv double %85, 1.000000e+09
  call void @add_assoc_double_ex(ptr noundef %82, ptr noundef @.str.15, i64 noundef 9, double noundef %86)
  store i32 0, ptr %6, align 4
  br label %87

87:                                               ; preds = %34, %21
  call void @llvm.lifetime.end.p0(i64 56, ptr %5) #14
  %88 = load i32, ptr %6, align 4
  switch i32 %88, label %90 [
    i32 0, label %89
    i32 1, label %89
  ]

89:                                               ; preds = %87, %87
  ret void

90:                                               ; preds = %87
  unreachable
}