; Function Attrs: nounwind uwtable
define hidden void @zif_gc_status(ptr noundef readonly captures(none) %0, ptr noundef %1) #0 {
  %3 = alloca %struct._zend_gc_status, align 8
  call void @llvm.lifetime.start.p0(i64 56, ptr nonnull %3) #14
  %4 = getelementptr inbounds nuw i8, ptr %0, i64 44
  %5 = load i32, ptr %4, align 4, !tbaa !28
  %.not = icmp eq i32 %5, 0
  br i1 %.not, label %7, label %6, !prof !69

6:                                                ; preds = %2
  tail call void @zend_wrong_parameters_none_error() #14
  br label %49

7:                                                ; preds = %2
  call void @zend_gc_get_status(ptr noundef nonnull %3) #14
  %8 = call ptr @_zend_new_array(i32 noundef 16) #14
  store ptr %8, ptr %1, align 8, !tbaa !28
  %9 = getelementptr inbounds nuw i8, ptr %1, i64 8
  store i32 775, ptr %9, align 8, !tbaa !28
  %10 = load i8, ptr %3, align 8, !tbaa !71, !range !73, !noundef !74
  %11 = trunc nuw i8 %10 to i1
  call void @add_assoc_bool_ex(ptr noundef nonnull %1, ptr noundef nonnull @.str.4, i64 noundef 7, i1 noundef zeroext %11) #14
  %12 = getelementptr inbounds nuw i8, ptr %3, i64 1
  %13 = load i8, ptr %12, align 1, !tbaa !75, !range !73, !noundef !74
  %14 = trunc nuw i8 %13 to i1
  call void @add_assoc_bool_ex(ptr noundef nonnull %1, ptr noundef nonnull @.str.5, i64 noundef 9, i1 noundef zeroext %14) #14
  %15 = getelementptr inbounds nuw i8, ptr %3, i64 2
  %16 = load i8, ptr %15, align 2, !tbaa !76, !range !73, !noundef !74
  %17 = trunc nuw i8 %16 to i1
  call void @add_assoc_bool_ex(ptr noundef nonnull %1, ptr noundef nonnull @.str.6, i64 noundef 4, i1 noundef zeroext %17) #14
  %18 = getelementptr inbounds nuw i8, ptr %3, i64 4
  %19 = load i32, ptr %18, align 4, !tbaa !77
  %20 = zext i32 %19 to i64
  call void @add_assoc_long_ex(ptr noundef nonnull %1, ptr noundef nonnull @.str.7, i64 noundef 4, i64 noundef %20) #14
  %21 = getelementptr inbounds nuw i8, ptr %3, i64 8
  %22 = load i32, ptr %21, align 8, !tbaa !78
  %23 = zext i32 %22 to i64
  call void @add_assoc_long_ex(ptr noundef nonnull %1, ptr noundef nonnull @.str.8, i64 noundef 9, i64 noundef %23) #14
  %24 = getelementptr inbounds nuw i8, ptr %3, i64 12
  %25 = load i32, ptr %24, align 4, !tbaa !79
  %26 = zext i32 %25 to i64
  call void @add_assoc_long_ex(ptr noundef nonnull %1, ptr noundef nonnull @.str.9, i64 noundef 9, i64 noundef %26) #14
  %27 = getelementptr inbounds nuw i8, ptr %3, i64 16
  %28 = load i32, ptr %27, align 8, !tbaa !80
  %29 = zext i32 %28 to i64
  call void @add_assoc_long_ex(ptr noundef nonnull %1, ptr noundef nonnull @.str.10, i64 noundef 11, i64 noundef %29) #14
  %30 = getelementptr inbounds nuw i8, ptr %3, i64 20
  %31 = load i32, ptr %30, align 4, !tbaa !81
  %32 = zext i32 %31 to i64
  call void @add_assoc_long_ex(ptr noundef nonnull %1, ptr noundef nonnull @.str.11, i64 noundef 5, i64 noundef %32) #14
  %33 = getelementptr inbounds nuw i8, ptr %3, i64 24
  %34 = load i64, ptr %33, align 8, !tbaa !82
  %35 = uitofp i64 %34 to double
  %36 = fdiv double %35, 1.000000e+09
  call void @add_assoc_double_ex(ptr noundef nonnull %1, ptr noundef nonnull @.str.12, i64 noundef 16, double noundef %36) #14
  %37 = getelementptr inbounds nuw i8, ptr %3, i64 32
  %38 = load i64, ptr %37, align 8, !tbaa !83
  %39 = uitofp i64 %38 to double
  %40 = fdiv double %39, 1.000000e+09
  call void @add_assoc_double_ex(ptr noundef nonnull %1, ptr noundef nonnull @.str.13, i64 noundef 14, double noundef %40) #14
  %41 = getelementptr inbounds nuw i8, ptr %3, i64 40
  %42 = load i64, ptr %41, align 8, !tbaa !84
  %43 = uitofp i64 %42 to double
  %44 = fdiv double %43, 1.000000e+09
  call void @add_assoc_double_ex(ptr noundef nonnull %1, ptr noundef nonnull @.str.14, i64 noundef 15, double noundef %44) #14
  %45 = getelementptr inbounds nuw i8, ptr %3, i64 48
  %46 = load i64, ptr %45, align 8, !tbaa !85
  %47 = uitofp i64 %46 to double
  %48 = fdiv double %47, 1.000000e+09
  call void @add_assoc_double_ex(ptr noundef nonnull %1, ptr noundef nonnull @.str.15, i64 noundef 9, double noundef %48) #14
  br label %49

49:                                               ; preds = %7, %6
  call void @llvm.lifetime.end.p0(i64 56, ptr nonnull %3) #14
  ret void
}